; Function Attrs: mustprogress uwtable
define void @proj_context_set_user_writable_directory(ptr noundef %0, ptr noundef %1, i32 noundef %2) local_unnamed_addr #0 {
  %.not = icmp eq ptr %0, null
  br i1 %.not, label %4, label %6

4:                                                ; preds = %3
  %5 = tail call noundef ptr @_Z18pj_get_default_ctxv()
  br label %6

6:                                                ; preds = %4, %3
  %.0 = phi ptr [ %0, %3 ], [ %5, %4 ]
  %.not9 = icmp eq ptr %1, null
  %7 = select i1 %.not9, ptr @.str.17, ptr %1
  %8 = getelementptr inbounds nuw i8, ptr %.0, i64 344
  %9 = getelementptr inbounds nuw i8, ptr %.0, i64 352
  %10 = load i64, ptr %9, align 8, !tbaa !14
  %11 = tail call noundef i64 @strlen(ptr noundef nonnull dereferenceable(1) %7) #30
  %12 = tail call noundef nonnull align 8 dereferenceable(32) ptr @_ZNSt7__cxx1112basic_stringIcSt11char_traitsIcESaIcEE10_M_replaceEmmPKcm(ptr noundef nonnull align 8 dereferenceable(32) %8, i64 noundef 0, i64 noundef %10, ptr noundef nonnull %7, i64 noundef %11)
  %13 = icmp ne i32 %2, 0
  %or.cond = or i1 %.not9, %13
  br i1 %or.cond, label %14, label %16

14:                                               ; preds = %6
  %15 = tail call ptr @proj_context_get_user_writable_directory(ptr noundef nonnull %.0, i32 noundef %2)
  br label %16

16:                                               ; preds = %6, %14
  ret void
}